target datalayout = "e-m:e-p270:32:32-p271:32:32-p272:64:64-i64:64-i128:128-f80:128-n8:16:32:64-S128"
target triple = "x86_64-pc-linux-gnu"

%struct.AVFormatContext = type { ptr, ptr, ptr, ptr, ptr, i32, i32, ptr, i32, ptr, i32, ptr, ptr, i64, i64, i64, i32, i32, i32, i64, i64, ptr, i32, i32, ptr, i32, i32, i32, i32, ptr, i64, i32, i32, %struct.AVIOInterruptCB, i32, i32, i32, i32, i64, i32, i32, i32, i32, i32, i32, i32, i32, i32, i32, i32, i32, i64, i32, i32, i32, i32, i32, ptr, ptr, ptr, ptr, i32, ptr, ptr, ptr, ptr, i32, ptr, ptr, i64, ptr, ptr, ptr, i64 }
%struct.AVIOInterruptCB = type { ptr, ptr }
%struct.WtvContext = type { ptr, i64, i64, i64, ptr, i32, i32 }
%struct.AVIndexEntry = type { i64, i64, i32, i32 }
%struct.AVStream = type { ptr, i32, i32, ptr, ptr, %struct.AVRational, i64, i64, i64, i32, i32, %struct.AVRational, ptr, %struct.AVRational, %struct.AVPacket, i32, %struct.AVRational, i32 }
%struct.AVPacket = type { ptr, i64, i64, ptr, i32, i32, i32, ptr, i32, i64, i64, ptr, ptr, %struct.AVRational }
%struct.AVRational = type { i32, i32 }

; Function Attrs: nounwind uwtable
define internal i32 @read_seek(ptr noundef %0, i32 noundef %1, i64 noundef %2, i32 noundef %3) #0 {
  %5 = alloca i32, align 4
  %6 = alloca ptr, align 8
  %7 = alloca i32, align 4
  %8 = alloca i64, align 8
  %9 = alloca i32, align 4
  %10 = alloca ptr, align 8
  %11 = alloca ptr, align 8
  %12 = alloca ptr, align 8
  %13 = alloca i64, align 8
  %14 = alloca i32, align 4
  %15 = alloca i32, align 4
  store ptr %0, ptr %6, align 8, !tbaa !13
  store i32 %1, ptr %7, align 4, !tbaa !38
  store i64 %2, ptr %8, align 8, !tbaa !39
  store i32 %3, ptr %9, align 4, !tbaa !38
  call void @llvm.lifetime.start.p0(i64 8, ptr %10) #8
  %16 = load ptr, ptr %6, align 8, !tbaa !13
  %17 = getelementptr inbounds nuw %struct.AVFormatContext, ptr %16, i32 0, i32 3
  %18 = load ptr, ptr %17, align 8, !tbaa !15
  store ptr %18, ptr %10, align 8, !tbaa !30
  call void @llvm.lifetime.start.p0(i64 8, ptr %11) #8
  %19 = load ptr, ptr %10, align 8, !tbaa !30
  %20 = getelementptr inbounds nuw %struct.WtvContext, ptr %19, i32 0, i32 0
  %21 = load ptr, ptr %20, align 8, !tbaa !40
  store ptr %21, ptr %11, align 8, !tbaa !41
  call void @llvm.lifetime.start.p0(i64 8, ptr %12) #8
  %22 = load ptr, ptr %6, align 8, !tbaa !13
  %23 = getelementptr inbounds nuw %struct.AVFormatContext, ptr %22, i32 0, i32 7
  %24 = load ptr, ptr %23, align 8, !tbaa !44
  %25 = getelementptr inbounds ptr, ptr %24, i64 0
  %26 = load ptr, ptr %25, align 8, !tbaa !45
  store ptr %26, ptr %12, align 8, !tbaa !45
  call void @llvm.lifetime.start.p0(i64 8, ptr %13) #8
  call void @llvm.lifetime.start.p0(i64 4, ptr %14) #8
  %27 = load i32, ptr %9, align 4, !tbaa !38
  %28 = and i32 %27, 8
  %29 = icmp ne i32 %28, 0
  br i1 %29, label %34, label %30

30:                                               ; preds = %4
  %31 = load i32, ptr %9, align 4, !tbaa !38
  %32 = and i32 %31, 2
  %33 = icmp ne i32 %32, 0
  br i1 %33, label %34, label %35

34:                                               ; preds = %30, %4
  store i32 -38, ptr %5, align 4
  store i32 1, ptr %15, align 4
  br label %159

35:                                               ; preds = %30
  %36 = load i64, ptr %8, align 8, !tbaa !39
  store i64 %36, ptr %13, align 8, !tbaa !39
  %37 = load ptr, ptr %10, align 8, !tbaa !30
  %38 = getelementptr inbounds nuw %struct.WtvContext, ptr %37, i32 0, i32 1
  %39 = load i64, ptr %38, align 8, !tbaa !36
  %40 = icmp ne i64 %39, -9223372036854775808
  br i1 %40, label %41, label %47

41:                                               ; preds = %35
  %42 = load ptr, ptr %10, align 8, !tbaa !30
  %43 = getelementptr inbounds nuw %struct.WtvContext, ptr %42, i32 0, i32 1
  %44 = load i64, ptr %43, align 8, !tbaa !36
  %45 = load i64, ptr %13, align 8, !tbaa !39
  %46 = sub nsw i64 %45, %44
  store i64 %46, ptr %13, align 8, !tbaa !39
  br label %47

47:                                               ; preds = %41, %35
  %48 = load ptr, ptr %10, align 8, !tbaa !30
  %49 = getelementptr inbounds nuw %struct.WtvContext, ptr %48, i32 0, i32 4
  %50 = load ptr, ptr %49, align 8, !tbaa !48
  %51 = load ptr, ptr %10, align 8, !tbaa !30
  %52 = getelementptr inbounds nuw %struct.WtvContext, ptr %51, i32 0, i32 5
  %53 = load i32, ptr %52, align 8, !tbaa !47
  %54 = load i64, ptr %13, align 8, !tbaa !39
  %55 = load i32, ptr %9, align 4, !tbaa !38
  %56 = call i32 @ff_index_search_timestamp(ptr noundef %50, i32 noundef %53, i64 noundef %54, i32 noundef %55)
  store i32 %56, ptr %14, align 4, !tbaa !38
  %57 = load i32, ptr %14, align 4, !tbaa !38
  %58 = icmp slt i32 %57, 0
  br i1 %58, label %59, label %117

59:                                               ; preds = %47
  %60 = load ptr, ptr %10, align 8, !tbaa !30
  %61 = getelementptr inbounds nuw %struct.WtvContext, ptr %60, i32 0, i32 3
  %62 = load i64, ptr %61, align 8, !tbaa !32
  %63 = icmp eq i64 %62, -9223372036854775808
  br i1 %63, label %70, label %64

64:                                               ; preds = %59
  %65 = load i64, ptr %8, align 8, !tbaa !39
  %66 = load ptr, ptr %10, align 8, !tbaa !30
  %67 = getelementptr inbounds nuw %struct.WtvContext, ptr %66, i32 0, i32 3
  %68 = load i64, ptr %67, align 8, !tbaa !32
  %69 = icmp slt i64 %65, %68
  br i1 %69, label %70, label %76

70:                                               ; preds = %64, %59
  %71 = load ptr, ptr %11, align 8, !tbaa !41
  %72 = call i64 @avio_seek(ptr noundef %71, i64 noundef 0, i32 noundef 0)
  %73 = icmp slt i64 %72, 0
  br i1 %73, label %74, label %75

74:                                               ; preds = %70
  store i32 -1, ptr %5, align 4
  store i32 1, ptr %15, align 4
  br label %159

75:                                               ; preds = %70
  br label %110

76:                                               ; preds = %64
  %77 = load ptr, ptr %12, align 8, !tbaa !45
  %78 = getelementptr inbounds nuw %struct.AVStream, ptr %77, i32 0, i32 7
  %79 = load i64, ptr %78, align 8, !tbaa !55
  %80 = icmp ne i64 %79, -9223372036854775808
  br i1 %80, label %81, label %109

81:                                               ; preds = %76
  %82 = load i64, ptr %13, align 8, !tbaa !39
  %83 = load ptr, ptr %12, align 8, !tbaa !45
  %84 = getelementptr inbounds nuw %struct.AVStream, ptr %83, i32 0, i32 7
  %85 = load i64, ptr %84, align 8, !tbaa !55
  %86 = icmp sgt i64 %82, %85
  br i1 %86, label %87, label %109

87:                                               ; preds = %81
  %88 = load ptr, ptr %10, align 8, !tbaa !30
  %89 = getelementptr inbounds nuw %struct.WtvContext, ptr %88, i32 0, i32 5
  %90 = load i32, ptr %89, align 8, !tbaa !47
  %91 = icmp ne i32 %90, 0
  br i1 %91, label %92, label %109

92:                                               ; preds = %87
  %93 = load ptr, ptr %11, align 8, !tbaa !41
  %94 = load ptr, ptr %10, align 8, !tbaa !30
  %95 = getelementptr inbounds nuw %struct.WtvContext, ptr %94, i32 0, i32 4
  %96 = load ptr, ptr %95, align 8, !tbaa !48
  %97 = load ptr, ptr %10, align 8, !tbaa !30
  %98 = getelementptr inbounds nuw %struct.WtvContext, ptr %97, i32 0, i32 5
  %99 = load i32, ptr %98, align 8, !tbaa !47
  %100 = sub nsw i32 %99, 1
  %101 = sext i32 %100 to i64
  %102 = getelementptr inbounds %struct.AVIndexEntry, ptr %96, i64 %101
  %103 = getelementptr inbounds nuw %struct.AVIndexEntry, ptr %102, i32 0, i32 0
  %104 = load i64, ptr %103, align 8, !tbaa !50
  %105 = call i64 @avio_seek(ptr noundef %93, i64 noundef %104, i32 noundef 0)
  %106 = icmp slt i64 %105, 0
  br i1 %106, label %107, label %108

107:                                              ; preds = %92
  store i32 -1, ptr %5, align 4
  store i32 1, ptr %15, align 4
  br label %159

108:                                              ; preds = %92
  br label %109

109:                                              ; preds = %108, %87, %81, %76
  br label %110

110:                                              ; preds = %109, %75
  %111 = load ptr, ptr %6, align 8, !tbaa !13
  %112 = load i64, ptr %8, align 8, !tbaa !39
  %113 = call i32 @parse_chunks(ptr noundef %111, i32 noundef 1, i64 noundef %112, ptr noundef null)
  %114 = icmp slt i32 %113, 0
  br i1 %114, label %115, label %116

115:                                              ; preds = %110
  store i32 -34, ptr %5, align 4
  store i32 1, ptr %15, align 4
  br label %159

116:                                              ; preds = %110
  store i32 0, ptr %5, align 4
  store i32 1, ptr %15, align 4
  br label %159

117:                                              ; preds = %47
  %118 = load ptr, ptr %11, align 8, !tbaa !41
  %119 = load ptr, ptr %10, align 8, !tbaa !30
  %120 = getelementptr inbounds nuw %struct.WtvContext, ptr %119, i32 0, i32 4
  %121 = load ptr, ptr %120, align 8, !tbaa !48
  %122 = load i32, ptr %14, align 4, !tbaa !38
  %123 = sext i32 %122 to i64
  %124 = getelementptr inbounds %struct.AVIndexEntry, ptr %121, i64 %123
  %125 = getelementptr inbounds nuw %struct.AVIndexEntry, ptr %124, i32 0, i32 0
  %126 = load i64, ptr %125, align 8, !tbaa !50
  %127 = call i64 @avio_seek(ptr noundef %118, i64 noundef %126, i32 noundef 0)
  %128 = icmp slt i64 %127, 0
  br i1 %128, label %129, label %130

129:                                              ; preds = %117
  store i32 -1, ptr %5, align 4
  store i32 1, ptr %15, align 4
  br label %159

130:                                              ; preds = %117
  %131 = load ptr, ptr %10, align 8, !tbaa !30
  %132 = getelementptr inbounds nuw %struct.WtvContext, ptr %131, i32 0, i32 4
  %133 = load ptr, ptr %132, align 8, !tbaa !48
  %134 = load i32, ptr %14, align 4, !tbaa !38
  %135 = sext i32 %134 to i64
  %136 = getelementptr inbounds %struct.AVIndexEntry, ptr %133, i64 %135
  %137 = getelementptr inbounds nuw %struct.AVIndexEntry, ptr %136, i32 0, i32 1
  %138 = load i64, ptr %137, align 8, !tbaa !54
  %139 = load ptr, ptr %10, align 8, !tbaa !30
  %140 = getelementptr inbounds nuw %struct.WtvContext, ptr %139, i32 0, i32 2
  store i64 %138, ptr %140, align 8, !tbaa !35
  %141 = load ptr, ptr %10, align 8, !tbaa !30
  %142 = getelementptr inbounds nuw %struct.WtvContext, ptr %141, i32 0, i32 1
  %143 = load i64, ptr %142, align 8, !tbaa !36
  %144 = icmp ne i64 %143, -9223372036854775808
  br i1 %144, label %145, label %153

145:                                              ; preds = %130
  %146 = load ptr, ptr %10, align 8, !tbaa !30
  %147 = getelementptr inbounds nuw %struct.WtvContext, ptr %146, i32 0, i32 1
  %148 = load i64, ptr %147, align 8, !tbaa !36
  %149 = load ptr, ptr %10, align 8, !tbaa !30
  %150 = getelementptr inbounds nuw %struct.WtvContext, ptr %149, i32 0, i32 2
  %151 = load i64, ptr %150, align 8, !tbaa !35
  %152 = add nsw i64 %151, %148
  store i64 %152, ptr %150, align 8, !tbaa !35
  br label %153

153:                                              ; preds = %145, %130
  %154 = load ptr, ptr %10, align 8, !tbaa !30
  %155 = getelementptr inbounds nuw %struct.WtvContext, ptr %154, i32 0, i32 2
  %156 = load i64, ptr %155, align 8, !tbaa !35
  %157 = load ptr, ptr %10, align 8, !tbaa !30
  %158 = getelementptr inbounds nuw %struct.WtvContext, ptr %157, i32 0, i32 3
  store i64 %156, ptr %158, align 8, !tbaa !32
  store i32 0, ptr %5, align 4
  store i32 1, ptr %15, align 4
  br label %159

159:                                              ; preds = %153, %129, %116, %115, %107, %74, %34
  call void @llvm.lifetime.end.p0(i64 4, ptr %14) #8
  call void @llvm.lifetime.end.p0(i64 8, ptr %13) #8
  call void @llvm.lifetime.end.p0(i64 8, ptr %12) #8
  call void @llvm.lifetime.end.p0(i64 8, ptr %11) #8
  call void @llvm.lifetime.end.p0(i64 8, ptr %10) #8
  %160 = load i32, ptr %5, align 4
  ret i32 %160
}