; Function Attrs: nounwind uwtable
define internal range(i32 -38, 1) i32 @read_seek(ptr noundef %0, i32 %1, i64 noundef %2, i32 noundef %3) #1 {
  %5 = getelementptr inbounds nuw i8, ptr %0, i64 24
  %6 = load ptr, ptr %5, align 8, !tbaa !11
  %7 = load ptr, ptr %6, align 8, !tbaa !32
  %8 = getelementptr inbounds nuw i8, ptr %0, i64 48
  %9 = load ptr, ptr %8, align 8, !tbaa !40
  %10 = load ptr, ptr %9, align 8, !tbaa !41
  %11 = and i32 %3, 10
  %or.cond = icmp eq i32 %11, 0
  br i1 %or.cond, label %12, label %65

12:                                               ; preds = %4
  %13 = getelementptr inbounds nuw i8, ptr %6, i64 8
  %14 = load i64, ptr %13, align 8, !tbaa !30
  %.not46 = icmp eq i64 %14, -9223372036854775808
  %15 = select i1 %.not46, i64 0, i64 %14
  %spec.select = sub nsw i64 %2, %15
  %16 = getelementptr inbounds nuw i8, ptr %6, i64 32
  %17 = load ptr, ptr %16, align 8, !tbaa !44
  %18 = getelementptr inbounds nuw i8, ptr %6, i64 40
  %19 = load i32, ptr %18, align 8, !tbaa !43
  %20 = tail call i32 @ff_index_search_timestamp(ptr noundef %17, i32 noundef %19, i64 noundef %spec.select, i32 noundef %3) #11
  %21 = icmp slt i32 %20, 0
  br i1 %21, label %22, label %47

22:                                               ; preds = %12
  %23 = getelementptr inbounds nuw i8, ptr %6, i64 24
  %24 = load i64, ptr %23, align 8, !tbaa !26
  %25 = icmp eq i64 %24, -9223372036854775808
  %26 = icmp slt i64 %2, %24
  %or.cond50 = or i1 %25, %26
  br i1 %or.cond50, label %27, label %30

27:                                               ; preds = %22
  %28 = tail call i64 @avio_seek(ptr noundef %7, i64 noundef 0, i32 noundef 0) #11
  %29 = icmp slt i64 %28, 0
  br i1 %29, label %65, label %44

30:                                               ; preds = %22
  %31 = getelementptr inbounds nuw i8, ptr %10, i64 48
  %32 = load i64, ptr %31, align 8, !tbaa !50
  %.not48 = icmp ne i64 %32, -9223372036854775808
  %33 = icmp sgt i64 %spec.select, %32
  %or.cond51 = and i1 %.not48, %33
  br i1 %or.cond51, label %34, label %44

34:                                               ; preds = %30
  %35 = load i32, ptr %18, align 8, !tbaa !43
  %.not49 = icmp eq i32 %35, 0
  br i1 %.not49, label %44, label %36

36:                                               ; preds = %34
  %37 = load ptr, ptr %16, align 8, !tbaa !44
  %38 = sext i32 %35 to i64
  %39 = getelementptr %struct.AVIndexEntry, ptr %37, i64 %38
  %40 = getelementptr i8, ptr %39, i64 -24
  %41 = load i64, ptr %40, align 8, !tbaa !45
  %42 = tail call i64 @avio_seek(ptr noundef %7, i64 noundef %41, i32 noundef 0) #11
  %43 = icmp slt i64 %42, 0
  br i1 %43, label %65, label %44

44:                                               ; preds = %30, %34, %36, %27
  %45 = tail call fastcc i32 @parse_chunks(ptr noundef nonnull %0, i32 noundef 1, i64 noundef %2, ptr noundef null)
  %46 = icmp slt i32 %45, 0
  %. = select i1 %46, i32 -34, i32 0
  br label %65

47:                                               ; preds = %12
  %48 = load ptr, ptr %16, align 8, !tbaa !44
  %49 = zext nneg i32 %20 to i64
  %50 = getelementptr inbounds nuw %struct.AVIndexEntry, ptr %48, i64 %49
  %51 = load i64, ptr %50, align 8, !tbaa !45
  %52 = tail call i64 @avio_seek(ptr noundef %7, i64 noundef %51, i32 noundef 0) #11
  %53 = icmp slt i64 %52, 0
  br i1 %53, label %65, label %54

54:                                               ; preds = %47
  %55 = load ptr, ptr %16, align 8, !tbaa !44
  %56 = getelementptr inbounds nuw %struct.AVIndexEntry, ptr %55, i64 %49, i32 1
  %57 = load i64, ptr %56, align 8, !tbaa !49
  %58 = getelementptr inbounds nuw i8, ptr %6, i64 16
  store i64 %57, ptr %58, align 8, !tbaa !29
  %59 = load i64, ptr %13, align 8, !tbaa !30
  %.not47 = icmp eq i64 %59, -9223372036854775808
  br i1 %.not47, label %62, label %60

60:                                               ; preds = %54
  %61 = add nsw i64 %59, %57
  store i64 %61, ptr %58, align 8, !tbaa !29
  br label %62

62:                                               ; preds = %60, %54
  %63 = phi i64 [ %61, %60 ], [ %57, %54 ]
  %64 = getelementptr inbounds nuw i8, ptr %6, i64 24
  store i64 %63, ptr %64, align 8, !tbaa !26
  br label %65

65:                                               ; preds = %47, %44, %36, %27, %4, %62
  %.0 = phi i32 [ 0, %62 ], [ -38, %4 ], [ -1, %27 ], [ -1, %36 ], [ %., %44 ], [ -1, %47 ]
  ret i32 %.0
}